target datalayout = "e-m:e-p270:32:32-p271:32:32-p272:64:64-i64:64-i128:128-f80:128-n8:16:32:64-S128"
target triple = "x86_64-pc-linux-gnu"

@hf_r3_commandlength = internal global i32 0, align 4
@hf_r3_command = internal global i32 0, align 4
@hf_r3_defineexception_number = internal global i32 0, align 4
@hf_r3_defineexception_startdate_month = internal global i32 0, align 4
@hf_r3_defineexception_startdate_day = internal global i32 0, align 4
@hf_r3_defineexception_startdate_hours = internal global i32 0, align 4
@hf_r3_defineexception_startdate_minutes = internal global i32 0, align 4
@hf_r3_defineexception_enddate_month = internal global i32 0, align 4
@hf_r3_defineexception_enddate_day = internal global i32 0, align 4
@hf_r3_defineexception_enddate_hours = internal global i32 0, align 4
@hf_r3_defineexception_enddate_minutes = internal global i32 0, align 4
@ett_r3defineexceptionstartdate = internal global i32 0, align 4
@ett_r3defineexceptionenddate = internal global i32 0, align 4
@.str.2134 = private unnamed_addr constant [40 x i8] c"Start MM/DD HH:MM (%02u/%02u %02u:%02u)\00", align 1
@.str.2135 = private unnamed_addr constant [38 x i8] c"End MM/DD HH:MM (%02u/%02u %02u:%02u)\00", align 1

; Function Attrs: null_pointer_is_valid sspstrong uwtable
define internal void @dissect_r3_cmd_defineexception(ptr noundef %0, i32 noundef %1, i32 noundef %2, ptr noundef %3, ptr noundef %4) #0 {
  %6 = alloca ptr, align 8
  %7 = alloca i32, align 4
  %8 = alloca i32, align 4
  %9 = alloca ptr, align 8
  %10 = alloca ptr, align 8
  %11 = alloca ptr, align 8
  %12 = alloca ptr, align 8
  %13 = alloca i8, align 1
  %14 = alloca ptr, align 8
  %15 = alloca i32, align 4
  store ptr %0, ptr %6, align 8
  store i32 %1, ptr %7, align 4
  store i32 %2, ptr %8, align 4
  store ptr %3, ptr %9, align 8
  store ptr %4, ptr %10, align 8
  call void @llvm.lifetime.start.p0(i64 8, ptr %11) #5
  call void @llvm.lifetime.start.p0(i64 8, ptr %12) #5
  call void @llvm.lifetime.start.p0(i64 1, ptr %13) #5
  call void @llvm.lifetime.start.p0(i64 8, ptr %14) #5
  %16 = load ptr, ptr %10, align 8
  %17 = icmp ne ptr %16, null
  br i1 %17, label %19, label %18

18:                                               ; preds = %5
  store i32 1, ptr %15, align 4
  br label %111

19:                                               ; preds = %5
  %20 = load ptr, ptr %6, align 8
  %21 = load i32, ptr %7, align 4
  %22 = add i32 %21, 0
  %23 = call zeroext i8 @tvb_get_uint8(ptr noundef %20, i32 noundef %22)
  store i8 %23, ptr %13, align 1
  %24 = load ptr, ptr %6, align 8
  %25 = load i32, ptr %7, align 4
  %26 = add i32 %25, 2
  %27 = load i8, ptr %13, align 1
  %28 = zext i8 %27 to i32
  %29 = sub i32 %28, 2
  %30 = call ptr @tvb_new_subset_length(ptr noundef %24, i32 noundef %26, i32 noundef %29)
  store ptr %30, ptr %14, align 8
  %31 = load ptr, ptr %10, align 8
  %32 = load i32, ptr @hf_r3_commandlength, align 4
  %33 = load ptr, ptr %6, align 8
  %34 = load i32, ptr %7, align 4
  %35 = add i32 %34, 0
  %36 = call ptr @proto_tree_add_item(ptr noundef %31, i32 noundef %32, ptr noundef %33, i32 noundef %35, i32 noundef 1, i32 noundef -2147483648)
  %37 = load ptr, ptr %10, align 8
  %38 = load i32, ptr @hf_r3_command, align 4
  %39 = load ptr, ptr %6, align 8
  %40 = load i32, ptr %7, align 4
  %41 = add i32 %40, 1
  %42 = call ptr @proto_tree_add_item(ptr noundef %37, i32 noundef %38, ptr noundef %39, i32 noundef %41, i32 noundef 1, i32 noundef -2147483648)
  %43 = load ptr, ptr %10, align 8
  %44 = load i32, ptr @hf_r3_defineexception_number, align 4
  %45 = load ptr, ptr %14, align 8
  %46 = call ptr @proto_tree_add_item(ptr noundef %43, i32 noundef %44, ptr noundef %45, i32 noundef 0, i32 noundef 1, i32 noundef -2147483648)
  %47 = load ptr, ptr %10, align 8
  %48 = load ptr, ptr %14, align 8
  %49 = load i32, ptr @ett_r3defineexceptionstartdate, align 4
  %50 = load ptr, ptr %14, align 8
  %51 = call zeroext i8 @tvb_get_uint8(ptr noundef %50, i32 noundef 1)
  %52 = zext i8 %51 to i32
  %53 = load ptr, ptr %14, align 8
  %54 = call zeroext i8 @tvb_get_uint8(ptr noundef %53, i32 noundef 2)
  %55 = zext i8 %54 to i32
  %56 = load ptr, ptr %14, align 8
  %57 = call zeroext i8 @tvb_get_uint8(ptr noundef %56, i32 noundef 3)
  %58 = zext i8 %57 to i32
  %59 = load ptr, ptr %14, align 8
  %60 = call zeroext i8 @tvb_get_uint8(ptr noundef %59, i32 noundef 4)
  %61 = zext i8 %60 to i32
  %62 = call ptr (ptr, ptr, i32, i32, i32, ptr, ptr, ...) @proto_tree_add_subtree_format(ptr noundef %47, ptr noundef %48, i32 noundef 1, i32 noundef 4, i32 noundef %49, ptr noundef null, ptr noundef @.str.2134, i32 noundef %52, i32 noundef %55, i32 noundef %58, i32 noundef %61)
  store ptr %62, ptr %11, align 8
  %63 = load ptr, ptr %11, align 8
  %64 = load i32, ptr @hf_r3_defineexception_startdate_month, align 4
  %65 = load ptr, ptr %14, align 8
  %66 = call ptr @proto_tree_add_item(ptr noundef %63, i32 noundef %64, ptr noundef %65, i32 noundef 1, i32 noundef 1, i32 noundef -2147483648)
  %67 = load ptr, ptr %11, align 8
  %68 = load i32, ptr @hf_r3_defineexception_startdate_day, align 4
  %69 = load ptr, ptr %14, align 8
  %70 = call ptr @proto_tree_add_item(ptr noundef %67, i32 noundef %68, ptr noundef %69, i32 noundef 2, i32 noundef 1, i32 noundef -2147483648)
  %71 = load ptr, ptr %11, align 8
  %72 = load i32, ptr @hf_r3_defineexception_startdate_hours, align 4
  %73 = load ptr, ptr %14, align 8
  %74 = call ptr @proto_tree_add_item(ptr noundef %71, i32 noundef %72, ptr noundef %73, i32 noundef 3, i32 noundef 1, i32 noundef -2147483648)
  %75 = load ptr, ptr %11, align 8
  %76 = load i32, ptr @hf_r3_defineexception_startdate_minutes, align 4
  %77 = load ptr, ptr %14, align 8
  %78 = call ptr @proto_tree_add_item(ptr noundef %75, i32 noundef %76, ptr noundef %77, i32 noundef 4, i32 noundef 1, i32 noundef -2147483648)
  %79 = load ptr, ptr %10, align 8
  %80 = load ptr, ptr %14, align 8
  %81 = load i32, ptr @ett_r3defineexceptionenddate, align 4
  %82 = load ptr, ptr %14, align 8
  %83 = call zeroext i8 @tvb_get_uint8(ptr noundef %82, i32 noundef 5)
  %84 = zext i8 %83 to i32
  %85 = load ptr, ptr %14, align 8
  %86 = call zeroext i8 @tvb_get_uint8(ptr noundef %85, i32 noundef 6)
  %87 = zext i8 %86 to i32
  %88 = load ptr, ptr %14, align 8
  %89 = call zeroext i8 @tvb_get_uint8(ptr noundef %88, i32 noundef 7)
  %90 = zext i8 %89 to i32
  %91 = load ptr, ptr %14, align 8
  %92 = call zeroext i8 @tvb_get_uint8(ptr noundef %91, i32 noundef 8)
  %93 = zext i8 %92 to i32
  %94 = call ptr (ptr, ptr, i32, i32, i32, ptr, ptr, ...) @proto_tree_add_subtree_format(ptr noundef %79, ptr noundef %80, i32 noundef 5, i32 noundef 4, i32 noundef %81, ptr noundef null, ptr noundef @.str.2135, i32 noundef %84, i32 noundef %87, i32 noundef %90, i32 noundef %93)
  store ptr %94, ptr %12, align 8
  %95 = load ptr, ptr %12, align 8
  %96 = load i32, ptr @hf_r3_defineexception_enddate_month, align 4
  %97 = load ptr, ptr %14, align 8
  %98 = call ptr @proto_tree_add_item(ptr noundef %95, i32 noundef %96, ptr noundef %97, i32 noundef 5, i32 noundef 1, i32 noundef -2147483648)
  %99 = load ptr, ptr %12, align 8
  %100 = load i32, ptr @hf_r3_defineexception_enddate_day, align 4
  %101 = load ptr, ptr %14, align 8
  %102 = call ptr @proto_tree_add_item(ptr noundef %99, i32 noundef %100, ptr noundef %101, i32 noundef 6, i32 noundef 1, i32 noundef -2147483648)
  %103 = load ptr, ptr %12, align 8
  %104 = load i32, ptr @hf_r3_defineexception_enddate_hours, align 4
  %105 = load ptr, ptr %14, align 8
  %106 = call ptr @proto_tree_add_item(ptr noundef %103, i32 noundef %104, ptr noundef %105, i32 noundef 7, i32 noundef 1, i32 noundef -2147483648)
  %107 = load ptr, ptr %12, align 8
  %108 = load i32, ptr @hf_r3_defineexception_enddate_minutes, align 4
  %109 = load ptr, ptr %14, align 8
  %110 = call ptr @proto_tree_add_item(ptr noundef %107, i32 noundef %108, ptr noundef %109, i32 noundef 8, i32 noundef 1, i32 noundef -2147483648)
  store i32 0, ptr %15, align 4
  br label %111

111:                                              ; preds = %19, %18
  call void @llvm.lifetime.end.p0(i64 8, ptr %14) #5
  call void @llvm.lifetime.end.p0(i64 1, ptr %13) #5
  call void @llvm.lifetime.end.p0(i64 8, ptr %12) #5
  call void @llvm.lifetime.end.p0(i64 8, ptr %11) #5
  %112 = load i32, ptr %15, align 4
  switch i32 %112, label %114 [
    i32 0, label %113
    i32 1, label %113
  ]

113:                                              ; preds = %111, %111
  ret void

114:                                              ; preds = %111
  unreachable
}